target datalayout = "e-m:e-p270:32:32-p271:32:32-p272:64:64-i64:64-i128:128-f80:128-n8:16:32:64-S128"
target triple = "x86_64-unknown-linux-gnu"

; Function Attrs: nounwind sspstrong uwtable
define internal void @mulu64(ptr noundef %plow, ptr noundef %phigh, i64 noundef %a, i64 noundef %b) #0 {
entry:
  %plow.addr = alloca ptr, align 8
  %phigh.addr = alloca ptr, align 8
  %a.addr = alloca i64, align 8
  %b.addr = alloca i64, align 8
  %r = alloca i128, align 16
  store ptr %plow, ptr %plow.addr, align 8
  store ptr %phigh, ptr %phigh.addr, align 8
  store i64 %a, ptr %a.addr, align 8
  store i64 %b, ptr %b.addr, align 8
  %0 = load i64, ptr %a.addr, align 8
  %conv = zext i64 %0 to i128
  %1 = load i64, ptr %b.addr, align 8
  %conv1 = zext i64 %1 to i128
  %mul = mul i128 %conv, %conv1
  store i128 %mul, ptr %r, align 16
  %2 = load i128, ptr %r, align 16
  %conv2 = trunc i128 %2 to i64
  %3 = load ptr, ptr %plow.addr, align 8
  store i64 %conv2, ptr %3, align 8
  %4 = load i128, ptr %r, align 16
  %shr = lshr i128 %4, 64
  %conv3 = trunc i128 %shr to i64
  %5 = load ptr, ptr %phigh.addr, align 8
  store i64 %conv3, ptr %5, align 8
  ret void
}

; Function Attrs: nounwind sspstrong uwtable
define dso_local i64 @helper_muluh_i64(i64 noundef %arg1, i64 noundef %arg2) #0 {
entry:
  %arg1.addr = alloca i64, align 8
  %arg2.addr = alloca i64, align 8
  %l = alloca i64, align 8
  %h = alloca i64, align 8
  store i64 %arg1, ptr %arg1.addr, align 8
  store i64 %arg2, ptr %arg2.addr, align 8
  %0 = load i64, ptr %arg1.addr, align 8
  %1 = load i64, ptr %arg2.addr, align 8
  call void @mulu64(ptr noundef %l, ptr noundef %h, i64 noundef %0, i64 noundef %1)
  %2 = load i64, ptr %h, align 8
  ret i64 %2
}